#include <math.h>
#include <stdio.h>
#include <stdlib.h>
#include <string.h>

int main(int argc, char* argv[])
{
	int a,b,sum=0;
	scanf("%d",&b);
	for(a=1;a<=b;a++){
		if(a%7==0)continue;
		if(a%10==7)continue;
		if(a-a%10==70)continue;
		sum+=a*a;
	}
	printf("%d\n",sum);
	return 0;
}
